; ModuleID = 'source-C-CXX/52/496.c'
source_filename = "source-C-CXX/52/496.c"
target datalayout = "e-m:e-p270:32:32-p271:32:32-p272:64:64-i64:64-f80:128-n8:16:32:64-S128"
target triple = "x86_64-pc-linux-gnu"

@.str = private unnamed_addr constant [3 x i8] c"%d\00", align 1
@.str.1 = private unnamed_addr constant [4 x i8] c"%d,\00", align 1

; Function Attrs: nofree nounwind sspstrong uwtable
define dso_local void @main() local_unnamed_addr #0 {
  %1 = alloca [300 x i32], align 16
  %2 = alloca [300 x i32], align 16
  %3 = alloca i32, align 4
  %4 = bitcast [300 x i32]* %1 to i8*
  call void @llvm.lifetime.start.p0i8(i64 1200, i8* nonnull %4) #3
  %5 = bitcast [300 x i32]* %2 to i8*
  call void @llvm.lifetime.start.p0i8(i64 1200, i8* nonnull %5) #3
  %6 = bitcast i32* %3 to i8*
  call void @llvm.lifetime.start.p0i8(i64 4, i8* nonnull %6) #3
  %7 = call i32 (i8*, ...) @__isoc99_scanf(i8* getelementptr inbounds ([3 x i8], [3 x i8]* @.str, i64 0, i64 0), i32* nonnull %3)
  %8 = getelementptr inbounds [300 x i32], [300 x i32]* %1, i64 0, i64 0
  %9 = call i32 (i8*, ...) @__isoc99_scanf(i8* getelementptr inbounds ([3 x i8], [3 x i8]* @.str, i64 0, i64 0), i32* nonnull %8)
  %10 = load i32, i32* %8, align 16, !tbaa !5
  %11 = getelementptr inbounds [300 x i32], [300 x i32]* %2, i64 0, i64 0
  store i32 %10, i32* %11, align 16, !tbaa !5
  %12 = load i32, i32* %3, align 4, !tbaa !5
  %13 = icmp sgt i32 %12, 1
  br i1 %13, label %19, label %50

14:                                               ; preds = %37
  %15 = add i32 %38, -1
  %16 = icmp sgt i32 %38, 1
  br i1 %16, label %17, label %50

17:                                               ; preds = %14
  %18 = zext i32 %15 to i64
  br label %43

19:                                               ; preds = %0, %37
  %20 = phi i64 [ %39, %37 ], [ 1, %0 ]
  %21 = phi i32 [ %38, %37 ], [ 1, %0 ]
  %22 = getelementptr inbounds [300 x i32], [300 x i32]* %1, i64 0, i64 %20
  %23 = call i32 (i8*, ...) @__isoc99_scanf(i8* getelementptr inbounds ([3 x i8], [3 x i8]* @.str, i64 0, i64 0), i32* nonnull %22)
  %24 = load i32, i32* %22, align 4, !tbaa !5
  br label %25

25:                                               ; preds = %29, %19
  %26 = phi i64 [ %27, %29 ], [ %20, %19 ]
  %27 = add nsw i64 %26, -1
  %28 = icmp sgt i64 %26, 0
  br i1 %28, label %29, label %33

29:                                               ; preds = %25
  %30 = getelementptr inbounds [300 x i32], [300 x i32]* %1, i64 0, i64 %27
  %31 = load i32, i32* %30, align 4, !tbaa !5
  %32 = icmp eq i32 %24, %31
  br i1 %32, label %37, label %25, !llvm.loop !9

33:                                               ; preds = %25
  %34 = sext i32 %21 to i64
  %35 = getelementptr inbounds [300 x i32], [300 x i32]* %2, i64 0, i64 %34
  store i32 %24, i32* %35, align 4, !tbaa !5
  %36 = add nsw i32 %21, 1
  br label %37

37:                                               ; preds = %29, %33
  %38 = phi i32 [ %36, %33 ], [ %21, %29 ]
  %39 = add nuw nsw i64 %20, 1
  %40 = load i32, i32* %3, align 4, !tbaa !5
  %41 = sext i32 %40 to i64
  %42 = icmp slt i64 %39, %41
  br i1 %42, label %19, label %14, !llvm.loop !11

43:                                               ; preds = %17, %43
  %44 = phi i64 [ 0, %17 ], [ %48, %43 ]
  %45 = getelementptr inbounds [300 x i32], [300 x i32]* %2, i64 0, i64 %44
  %46 = load i32, i32* %45, align 4, !tbaa !5
  %47 = call i32 (i8*, ...) @printf(i8* nonnull dereferenceable(1) getelementptr inbounds ([4 x i8], [4 x i8]* @.str.1, i64 0, i64 0), i32 %46)
  %48 = add nuw nsw i64 %44, 1
  %49 = icmp eq i64 %48, %18
  br i1 %49, label %50, label %43, !llvm.loop !12

50:                                               ; preds = %43, %0, %14
  %51 = phi i32 [ %15, %14 ], [ 0, %0 ], [ %15, %43 ]
  %52 = sext i32 %51 to i64
  %53 = getelementptr inbounds [300 x i32], [300 x i32]* %2, i64 0, i64 %52
  %54 = load i32, i32* %53, align 4, !tbaa !5
  %55 = call i32 (i8*, ...) @printf(i8* nonnull dereferenceable(1) getelementptr inbounds ([3 x i8], [3 x i8]* @.str, i64 0, i64 0), i32 %54)
  call void @llvm.lifetime.end.p0i8(i64 4, i8* nonnull %6) #3
  call void @llvm.lifetime.end.p0i8(i64 1200, i8* nonnull %5) #3
  call void @llvm.lifetime.end.p0i8(i64 1200, i8* nonnull %4) #3
  ret void
}

; Function Attrs: argmemonly mustprogress nofree nosync nounwind willreturn
declare void @llvm.lifetime.start.p0i8(i64 immarg, i8* nocapture) #1

; Function Attrs: nofree nounwind
declare noundef i32 @__isoc99_scanf(i8* nocapture noundef readonly, ...) local_unnamed_addr #2

; Function Attrs: nofree nounwind
declare noundef i32 @printf(i8* nocapture noundef readonly, ...) local_unnamed_addr #2

; Function Attrs: argmemonly mustprogress nofree nosync nounwind willreturn
declare void @llvm.lifetime.end.p0i8(i64 immarg, i8* nocapture) #1


!llvm.module.flags = !{!0, !1, !2, !3}
!llvm.ident = !{!4}

!0 = !{i32 1, !"wchar_size", i32 4}
!1 = !{i32 7, !"PIC Level", i32 2}
!2 = !{i32 7, !"PIE Level", i32 2}
!3 = !{i32 7, !"uwtable", i32 1}
!4 = !{!"clang version 13.0.0"}
!5 = !{!6, !6, i64 0}
!6 = !{!"int", !7, i64 0}
!7 = !{!"omnipotent char", !8, i64 0}
!8 = !{!"Simple C/C++ TBAA"}
!9 = distinct !{!9, !10}
!10 = !{!"llvm.loop.mustprogress"}
!11 = distinct !{!11, !10}
!12 = distinct !{!12, !10}
